target datalayout = "e-m:e-p270:32:32-p271:32:32-p272:64:64-i64:64-i128:128-f80:128-n8:16:32:64-S128"
target triple = "x86_64-pc-linux-gnu"

%struct.jpeg_decompress_struct = type { ptr, ptr, ptr, ptr, i32, i32, ptr, i32, i32, i32, i32, i32, i32, i32, double, i32, i32, i32, i32, i32, i32, i32, i32, i32, i32, i32, i32, i32, i32, i32, i32, i32, i32, ptr, i32, i32, i32, i32, i32, ptr, [4 x ptr], [4 x ptr], [4 x ptr], i32, ptr, i32, i32, [16 x i8], [16 x i8], [16 x i8], i32, i32, i8, i8, i8, i16, i16, i32, i8, i32, ptr, i32, i32, i32, i32, ptr, i32, [4 x ptr], i32, i32, i32, [10 x i32], i32, i32, i32, i32, i32, ptr, ptr, ptr, ptr, ptr, ptr, ptr, ptr, ptr, ptr, ptr }
%struct.my_upsampler = type { %struct.jpeg_upsampler, [10 x ptr], [10 x ptr], i32, i32, [10 x i32], [10 x i8], [10 x i8] }
%struct.jpeg_upsampler = type { ptr, ptr, ptr, ptr, i32 }
%struct.jpeg_component_info = type { i32, i32, i32, i32, i32, i32, i32, i32, i32, i32, i32, i32, i32, i32, i32, i32, i32, i32, i32, ptr, ptr }
%struct.jpeg_color_deconverter = type { ptr, ptr, ptr, ptr }

; Function Attrs: nounwind uwtable
define internal void @sep_upsample(ptr noundef %0, ptr noundef %1, ptr noundef %2, i32 noundef %3, ptr noundef %4, ptr noundef %5, i32 noundef %6) #0 {
  %8 = alloca ptr, align 8
  %9 = alloca ptr, align 8
  %10 = alloca ptr, align 8
  %11 = alloca i32, align 4
  %12 = alloca ptr, align 8
  %13 = alloca ptr, align 8
  %14 = alloca i32, align 4
  %15 = alloca ptr, align 8
  %16 = alloca i32, align 4
  %17 = alloca ptr, align 8
  %18 = alloca i32, align 4
  store ptr %0, ptr %8, align 8, !tbaa !3
  store ptr %1, ptr %9, align 8, !tbaa !74
  store ptr %2, ptr %10, align 8, !tbaa !76
  store i32 %3, ptr %11, align 4, !tbaa !55
  store ptr %4, ptr %12, align 8, !tbaa !68
  store ptr %5, ptr %13, align 8, !tbaa !76
  store i32 %6, ptr %14, align 4, !tbaa !55
  call void @llvm.lifetime.start.p0(i64 8, ptr %15) #3
  %19 = load ptr, ptr %8, align 8, !tbaa !3
  %20 = getelementptr inbounds nuw %struct.jpeg_decompress_struct, ptr %19, i32 0, i32 85
  %21 = load ptr, ptr %20, align 8, !tbaa !46
  store ptr %21, ptr %15, align 8, !tbaa !45
  call void @llvm.lifetime.start.p0(i64 4, ptr %16) #3
  call void @llvm.lifetime.start.p0(i64 8, ptr %17) #3
  call void @llvm.lifetime.start.p0(i64 4, ptr %18) #3
  %22 = load ptr, ptr %15, align 8, !tbaa !45
  %23 = getelementptr inbounds nuw %struct.my_upsampler, ptr %22, i32 0, i32 3
  %24 = load i32, ptr %23, align 8, !tbaa !71
  %25 = load ptr, ptr %8, align 8, !tbaa !3
  %26 = getelementptr inbounds nuw %struct.jpeg_decompress_struct, ptr %25, i32 0, i32 62
  %27 = load i32, ptr %26, align 4, !tbaa !63
  %28 = icmp sge i32 %24, %27
  br i1 %28, label %29, label %78

29:                                               ; preds = %7
  store i32 0, ptr %16, align 4, !tbaa !55
  %30 = load ptr, ptr %8, align 8, !tbaa !3
  %31 = getelementptr inbounds nuw %struct.jpeg_decompress_struct, ptr %30, i32 0, i32 44
  %32 = load ptr, ptr %31, align 8, !tbaa !56
  store ptr %32, ptr %17, align 8, !tbaa !45
  br label %33

33:                                               ; preds = %70, %29
  %34 = load i32, ptr %16, align 4, !tbaa !55
  %35 = load ptr, ptr %8, align 8, !tbaa !3
  %36 = getelementptr inbounds nuw %struct.jpeg_decompress_struct, ptr %35, i32 0, i32 9
  %37 = load i32, ptr %36, align 8, !tbaa !57
  %38 = icmp slt i32 %34, %37
  br i1 %38, label %39, label %75

39:                                               ; preds = %33
  %40 = load ptr, ptr %15, align 8, !tbaa !45
  %41 = getelementptr inbounds nuw %struct.my_upsampler, ptr %40, i32 0, i32 2
  %42 = load i32, ptr %16, align 4, !tbaa !55
  %43 = sext i32 %42 to i64
  %44 = getelementptr inbounds [10 x ptr], ptr %41, i64 0, i64 %43
  %45 = load ptr, ptr %44, align 8, !tbaa !45
  %46 = load ptr, ptr %8, align 8, !tbaa !3
  %47 = load ptr, ptr %17, align 8, !tbaa !45
  %48 = load ptr, ptr %9, align 8, !tbaa !74
  %49 = load i32, ptr %16, align 4, !tbaa !55
  %50 = sext i32 %49 to i64
  %51 = getelementptr inbounds ptr, ptr %48, i64 %50
  %52 = load ptr, ptr %51, align 8, !tbaa !68
  %53 = load ptr, ptr %10, align 8, !tbaa !76
  %54 = load i32, ptr %53, align 4, !tbaa !55
  %55 = load ptr, ptr %15, align 8, !tbaa !45
  %56 = getelementptr inbounds nuw %struct.my_upsampler, ptr %55, i32 0, i32 5
  %57 = load i32, ptr %16, align 4, !tbaa !55
  %58 = sext i32 %57 to i64
  %59 = getelementptr inbounds [10 x i32], ptr %56, i64 0, i64 %58
  %60 = load i32, ptr %59, align 4, !tbaa !55
  %61 = mul i32 %54, %60
  %62 = zext i32 %61 to i64
  %63 = getelementptr inbounds nuw ptr, ptr %52, i64 %62
  %64 = load ptr, ptr %15, align 8, !tbaa !45
  %65 = getelementptr inbounds nuw %struct.my_upsampler, ptr %64, i32 0, i32 1
  %66 = getelementptr inbounds [10 x ptr], ptr %65, i64 0, i64 0
  %67 = load i32, ptr %16, align 4, !tbaa !55
  %68 = sext i32 %67 to i64
  %69 = getelementptr inbounds ptr, ptr %66, i64 %68
  call void %45(ptr noundef %46, ptr noundef %47, ptr noundef %63, ptr noundef %69)
  br label %70

70:                                               ; preds = %39
  %71 = load i32, ptr %16, align 4, !tbaa !55
  %72 = add nsw i32 %71, 1
  store i32 %72, ptr %16, align 4, !tbaa !55
  %73 = load ptr, ptr %17, align 8, !tbaa !45
  %74 = getelementptr inbounds nuw %struct.jpeg_component_info, ptr %73, i32 1
  store ptr %74, ptr %17, align 8, !tbaa !45
  br label %33, !llvm.loop !77

75:                                               ; preds = %33
  %76 = load ptr, ptr %15, align 8, !tbaa !45
  %77 = getelementptr inbounds nuw %struct.my_upsampler, ptr %76, i32 0, i32 3
  store i32 0, ptr %77, align 8, !tbaa !71
  br label %78

78:                                               ; preds = %75, %7
  %79 = load ptr, ptr %8, align 8, !tbaa !3
  %80 = getelementptr inbounds nuw %struct.jpeg_decompress_struct, ptr %79, i32 0, i32 62
  %81 = load i32, ptr %80, align 4, !tbaa !63
  %82 = load ptr, ptr %15, align 8, !tbaa !45
  %83 = getelementptr inbounds nuw %struct.my_upsampler, ptr %82, i32 0, i32 3
  %84 = load i32, ptr %83, align 8, !tbaa !71
  %85 = sub nsw i32 %81, %84
  store i32 %85, ptr %18, align 4, !tbaa !55
  %86 = load i32, ptr %18, align 4, !tbaa !55
  %87 = load ptr, ptr %15, align 8, !tbaa !45
  %88 = getelementptr inbounds nuw %struct.my_upsampler, ptr %87, i32 0, i32 4
  %89 = load i32, ptr %88, align 4, !tbaa !73
  %90 = icmp ugt i32 %86, %89
  br i1 %90, label %91, label %95

91:                                               ; preds = %78
  %92 = load ptr, ptr %15, align 8, !tbaa !45
  %93 = getelementptr inbounds nuw %struct.my_upsampler, ptr %92, i32 0, i32 4
  %94 = load i32, ptr %93, align 4, !tbaa !73
  store i32 %94, ptr %18, align 4, !tbaa !55
  br label %95

95:                                               ; preds = %91, %78
  %96 = load ptr, ptr %13, align 8, !tbaa !76
  %97 = load i32, ptr %96, align 4, !tbaa !55
  %98 = load i32, ptr %14, align 4, !tbaa !55
  %99 = sub i32 %98, %97
  store i32 %99, ptr %14, align 4, !tbaa !55
  %100 = load i32, ptr %18, align 4, !tbaa !55
  %101 = load i32, ptr %14, align 4, !tbaa !55
  %102 = icmp ugt i32 %100, %101
  br i1 %102, label %103, label %105

103:                                              ; preds = %95
  %104 = load i32, ptr %14, align 4, !tbaa !55
  store i32 %104, ptr %18, align 4, !tbaa !55
  br label %105

105:                                              ; preds = %103, %95
  %106 = load ptr, ptr %8, align 8, !tbaa !3
  %107 = getelementptr inbounds nuw %struct.jpeg_decompress_struct, ptr %106, i32 0, i32 86
  %108 = load ptr, ptr %107, align 8, !tbaa !78
  %109 = getelementptr inbounds nuw %struct.jpeg_color_deconverter, ptr %108, i32 0, i32 1
  %110 = load ptr, ptr %109, align 8, !tbaa !79
  %111 = load ptr, ptr %8, align 8, !tbaa !3
  %112 = load ptr, ptr %15, align 8, !tbaa !45
  %113 = getelementptr inbounds nuw %struct.my_upsampler, ptr %112, i32 0, i32 1
  %114 = getelementptr inbounds [10 x ptr], ptr %113, i64 0, i64 0
  %115 = load ptr, ptr %15, align 8, !tbaa !45
  %116 = getelementptr inbounds nuw %struct.my_upsampler, ptr %115, i32 0, i32 3
  %117 = load i32, ptr %116, align 8, !tbaa !71
  %118 = load ptr, ptr %12, align 8, !tbaa !68
  %119 = load ptr, ptr %13, align 8, !tbaa !76
  %120 = load i32, ptr %119, align 4, !tbaa !55
  %121 = zext i32 %120 to i64
  %122 = getelementptr inbounds nuw ptr, ptr %118, i64 %121
  %123 = load i32, ptr %18, align 4, !tbaa !55
  call void %110(ptr noundef %111, ptr noundef %114, i32 noundef %117, ptr noundef %122, i32 noundef %123)
  %124 = load i32, ptr %18, align 4, !tbaa !55
  %125 = load ptr, ptr %13, align 8, !tbaa !76
  %126 = load i32, ptr %125, align 4, !tbaa !55
  %127 = add i32 %126, %124
  store i32 %127, ptr %125, align 4, !tbaa !55
  %128 = load i32, ptr %18, align 4, !tbaa !55
  %129 = load ptr, ptr %15, align 8, !tbaa !45
  %130 = getelementptr inbounds nuw %struct.my_upsampler, ptr %129, i32 0, i32 4
  %131 = load i32, ptr %130, align 4, !tbaa !73
  %132 = sub i32 %131, %128
  store i32 %132, ptr %130, align 4, !tbaa !73
  %133 = load i32, ptr %18, align 4, !tbaa !55
  %134 = load ptr, ptr %15, align 8, !tbaa !45
  %135 = getelementptr inbounds nuw %struct.my_upsampler, ptr %134, i32 0, i32 3
  %136 = load i32, ptr %135, align 8, !tbaa !71
  %137 = add i32 %136, %133
  store i32 %137, ptr %135, align 8, !tbaa !71
  %138 = load ptr, ptr %15, align 8, !tbaa !45
  %139 = getelementptr inbounds nuw %struct.my_upsampler, ptr %138, i32 0, i32 3
  %140 = load i32, ptr %139, align 8, !tbaa !71
  %141 = load ptr, ptr %8, align 8, !tbaa !3
  %142 = getelementptr inbounds nuw %struct.jpeg_decompress_struct, ptr %141, i32 0, i32 62
  %143 = load i32, ptr %142, align 4, !tbaa !63
  %144 = icmp sge i32 %140, %143
  br i1 %144, label %145, label %149

145:                                              ; preds = %105
  %146 = load ptr, ptr %10, align 8, !tbaa !76
  %147 = load i32, ptr %146, align 4, !tbaa !55
  %148 = add i32 %147, 1
  store i32 %148, ptr %146, align 4, !tbaa !55
  br label %149

149:                                              ; preds = %145, %105
  call void @llvm.lifetime.end.p0(i64 4, ptr %18) #3
  call void @llvm.lifetime.end.p0(i64 8, ptr %17) #3
  call void @llvm.lifetime.end.p0(i64 4, ptr %16) #3
  call void @llvm.lifetime.end.p0(i64 8, ptr %15) #3
  ret void
}