; Function Attrs: nounwind uwtable
define internal void @sep_upsample(ptr noundef %0, ptr noundef readonly captures(none) %1, ptr noundef captures(none) %2, i32 %3, ptr noundef %4, ptr noundef captures(none) %5, i32 noundef %6) #0 {
  %8 = getelementptr inbounds nuw i8, ptr %0, i64 608
  %9 = load ptr, ptr %8, align 8, !tbaa !43
  %10 = getelementptr inbounds nuw i8, ptr %9, i64 200
  %11 = load i32, ptr %10, align 8, !tbaa !68
  %12 = getelementptr inbounds nuw i8, ptr %0, i64 412
  %13 = load i32, ptr %12, align 4, !tbaa !59
  %.not = icmp slt i32 %11, %13
  br i1 %.not, label %39, label %14

14:                                               ; preds = %7
  %15 = getelementptr inbounds nuw i8, ptr %0, i64 56
  %16 = load i32, ptr %15, align 8, !tbaa !52
  %17 = icmp sgt i32 %16, 0
  br i1 %17, label %.lr.ph, label %._crit_edge

.lr.ph:                                           ; preds = %14
  %18 = getelementptr inbounds nuw i8, ptr %0, i64 304
  %19 = load ptr, ptr %18, align 8, !tbaa !53
  %20 = getelementptr inbounds nuw i8, ptr %9, i64 120
  %21 = getelementptr inbounds nuw i8, ptr %9, i64 208
  %22 = getelementptr inbounds nuw i8, ptr %9, i64 40
  br label %23

23:                                               ; preds = %.lr.ph, %23
  %indvars.iv = phi i64 [ 0, %.lr.ph ], [ %indvars.iv.next, %23 ]
  %.04552 = phi ptr [ %19, %.lr.ph ], [ %35, %23 ]
  %24 = getelementptr inbounds nuw [10 x ptr], ptr %20, i64 0, i64 %indvars.iv
  %25 = load ptr, ptr %24, align 8, !tbaa !63
  %26 = getelementptr inbounds nuw ptr, ptr %1, i64 %indvars.iv
  %27 = load ptr, ptr %26, align 8, !tbaa !71
  %28 = load i32, ptr %2, align 4, !tbaa !60
  %29 = getelementptr inbounds nuw [10 x i32], ptr %21, i64 0, i64 %indvars.iv
  %30 = load i32, ptr %29, align 4, !tbaa !60
  %31 = mul i32 %30, %28
  %32 = zext i32 %31 to i64
  %33 = getelementptr inbounds nuw ptr, ptr %27, i64 %32
  %34 = getelementptr inbounds nuw ptr, ptr %22, i64 %indvars.iv
  tail call void %25(ptr noundef nonnull %0, ptr noundef %.04552, ptr noundef %33, ptr noundef nonnull %34) #7
  %indvars.iv.next = add nuw nsw i64 %indvars.iv, 1
  %35 = getelementptr inbounds nuw i8, ptr %.04552, i64 96
  %36 = load i32, ptr %15, align 8, !tbaa !52
  %37 = sext i32 %36 to i64
  %38 = icmp slt i64 %indvars.iv.next, %37
  br i1 %38, label %23, label %._crit_edge.loopexit, !llvm.loop !72

._crit_edge.loopexit:                             ; preds = %23
  %.pre.pre = load i32, ptr %12, align 4, !tbaa !59
  br label %._crit_edge

._crit_edge:                                      ; preds = %._crit_edge.loopexit, %14
  %.pre = phi i32 [ %.pre.pre, %._crit_edge.loopexit ], [ %13, %14 ]
  store i32 0, ptr %10, align 8, !tbaa !68
  br label %39

39:                                               ; preds = %._crit_edge, %7
  %40 = phi i32 [ 0, %._crit_edge ], [ %11, %7 ]
  %41 = phi i32 [ %.pre, %._crit_edge ], [ %13, %7 ]
  %42 = sub nsw i32 %41, %40
  %43 = getelementptr inbounds nuw i8, ptr %9, i64 204
  %44 = load i32, ptr %43, align 4, !tbaa !70
  %spec.select = tail call i32 @llvm.umin.i32(i32 %42, i32 %44)
  %45 = load i32, ptr %5, align 4, !tbaa !60
  %46 = sub i32 %6, %45
  %.1 = tail call i32 @llvm.umin.i32(i32 %spec.select, i32 %46)
  %47 = getelementptr inbounds nuw i8, ptr %0, i64 616
  %48 = load ptr, ptr %47, align 8, !tbaa !73
  %49 = getelementptr inbounds nuw i8, ptr %48, i64 8
  %50 = load ptr, ptr %49, align 8, !tbaa !74
  %51 = getelementptr inbounds nuw i8, ptr %9, i64 40
  %52 = zext i32 %45 to i64
  %53 = getelementptr inbounds nuw ptr, ptr %4, i64 %52
  tail call void %50(ptr noundef nonnull %0, ptr noundef nonnull %51, i32 noundef %40, ptr noundef %53, i32 noundef %.1) #7
  %54 = load i32, ptr %5, align 4, !tbaa !60
  %55 = add i32 %54, %.1
  store i32 %55, ptr %5, align 4, !tbaa !60
  %56 = load i32, ptr %43, align 4, !tbaa !70
  %57 = sub i32 %56, %.1
  store i32 %57, ptr %43, align 4, !tbaa !70
  %58 = load i32, ptr %10, align 8, !tbaa !68
  %59 = add i32 %58, %.1
  store i32 %59, ptr %10, align 8, !tbaa !68
  %60 = load i32, ptr %12, align 4, !tbaa !59
  %.not50 = icmp slt i32 %59, %60
  br i1 %.not50, label %64, label %61

61:                                               ; preds = %39
  %62 = load i32, ptr %2, align 4, !tbaa !60
  %63 = add i32 %62, 1
  store i32 %63, ptr %2, align 4, !tbaa !60
  br label %64

64:                                               ; preds = %61, %39
  ret void
}